(dp0
I11114
(dp1
S'headers'
p2
(dp3
S'username'
p4
Vnavi
p5
sS'ticket-num'
p6
Vsrno1
p7
sS'correlation-id'
p8
I11114
ssS'payload'
p9
S'{"Payload": {"source": "10.10.10.1", "destination": "10.172.2.1", "protocol": "tcp", "port": 22, "input-row-id": 1}}'
p10
ssI11115
(dp11
S'headers'
p12
(dp13
S'username'
p14
Vnavi
p15
sS'ticket-num'
p16
Vsrno1
p17
sS'correlation-id'
p18
I11115
ssS'payload'
p19
S'{"Payload": {"source": "10.10.10.1", "destination": "10.172.2.1", "protocol": "tcp", "port": 22, "input-row-id": 1}}'
p20
ssI11110
(dp21
S'headers'
p22
(dp23
S'username'
p24
Vnavi
p25
sS'ticket-num'
p26
Vsrno1
p27
sS'correlation-id'
p28
I11110
ssS'payload'
p29
S'{"Payload": {"source": "10.10.10.1", "destination": "10.172.2.1", "protocol": "tcp", "port": 22, "input-row-id": 1}}'
p30
ss.