(dp0
I11115
(dp1
S'headers'
p2
(dp3
S'username'
p4
Vnavi
p5
sS'ticket-num'
p6
Vsrno1
p7
sS'correlation-id'
p8
I11115
ssS'payload'
p9
S'{"Payload": {"source": "10.10.10.1", "destination": "10.172.2.1", "protocol": "tcp", "port": 22, "input-row-id": 1}}'
p10
ss.