(dp0
I11114
(dp1
S'headers'
p2
(dp3
S'username'
p4
Vnavi
p5
sS'ticket-num'
p6
Vsrno1
p7
sS'correlation-id'
p8
I11114
ssS'payload'
p9
S'{"Payload": {"source": "10.10.10.1", "destination": "10.172.2.1", "protocol": "tcp", "port": 22, "input-row-id": 1}}'
p10
ssV11115_v
p11
(dp12
S'headers'
p13
(dp14
S'username'
p15
Vnavi
p16
sS'ticket-num'
p17
Vsrno1
p18
sS'correlation-id'
p19
g11
ssS'payload'
p20
S'{"Payload": {"source": "10.10.10.1", "destination": "10.172.2.1", "protocol": "tcp", "port": 22, "input-row-id": 1}}'
p21
ssI11110
(dp22
S'headers'
p23
(dp24
S'username'
p25
Vnavi
p26
sS'ticket-num'
p27
Vsrno1
p28
sS'correlation-id'
p29
I11110
ssS'payload'
p30
S'{"Payload": {"source": "10.10.10.1", "destination": "10.172.2.1", "protocol": "tcp", "port": 22, "input-row-id": 1}}'
p31
ss.