(dp0
S'dummy'
p1
S'd'
p2
sI11111
(dp3
S'headers'
p4
(dp5
S'username'
p6
Vnavi
p7
sS'ticket-num'
p8
Vsrno1
p9
sS'correlation-id'
p10
I11111
ssS'payload'
p11
S'{"Payload": {"source": "10.10.10.1", "destination": "10.172.2.1", "protocol": "tcp", "port": 22, "input-row-id": 1}}'
p12
ssI11112
(dp13
S'headers'
p14
(dp15
S'username'
p16
Vnavi
p17
sS'ticket-num'
p18
Vsrno1
p19
sS'correlation-id'
p20
I11112
ssS'payload'
p21
S'{"Payload": {"source": "10.10.10.1", "destination": "10.172.2.1", "protocol": "tcp", "port": 22, "input-row-id": 1}}'
p22
ssI11113
(dp23
S'headers'
p24
(dp25
S'username'
p26
Vnavi
p27
sS'ticket-num'
p28
Vsrno1
p29
sS'correlation-id'
p30
I11113
ssS'payload'
p31
S'{"Payload": {"source": "10.10.10.1", "destination": "10.172.2.1", "protocol": "tcp", "port": 22, "input-row-id": 1}}'
p32
ssI11114
(dp33
S'headers'
p34
(dp35
S'username'
p36
Vnavi
p37
sS'ticket-num'
p38
Vsrno1
p39
sS'correlation-id'
p40
I11114
ssS'payload'
p41
S'{"Payload": {"source": "10.10.10.1", "destination": "10.172.2.1", "protocol": "tcp", "port": 22, "input-row-id": 1}}'
p42
ssI11115
(dp43
S'headers'
p44
(dp45
S'username'
p46
Vnavi
p47
sS'ticket-num'
p48
Vsrno1
p49
sS'correlation-id'
p50
I11115
ssS'payload'
p51
S'{"Payload": {"source": "10.10.10.1", "destination": "10.172.2.1", "protocol": "tcp", "port": 22, "input-row-id": 1}}'
p52
ssI11116
(dp53
S'headers'
p54
(dp55
S'username'
p56
Vnavi
p57
sS'ticket-num'
p58
Vsrno1
p59
sS'correlation-id'
p60
I11116
ssS'payload'
p61
S'{"Payload": {"source": "10.10.10.1", "destination": "10.172.2.1", "protocol": "tcp", "port": 22, "input-row-id": 1}}'
p62
ss.